; Function Attrs: mustprogress uwtable
define weak dso_local zeroext i1 @AbslInternalPerThreadSemWait(i64 %0) local_unnamed_addr #0 {
  %2 = tail call noundef ptr @_ZN4absl13base_internal30CurrentThreadIdentityIfPresentEv()
  %3 = icmp eq ptr %2, null
  br i1 %3, label %4, label %_ZN4absl24synchronization_internal32GetOrCreateCurrentThreadIdentityEv.exit, !prof !4

4:                                                ; preds = %1
  %5 = tail call noundef ptr @_ZN4absl24synchronization_internal20CreateThreadIdentityEv()
  br label %_ZN4absl24synchronization_internal32GetOrCreateCurrentThreadIdentityEv.exit

_ZN4absl24synchronization_internal32GetOrCreateCurrentThreadIdentityEv.exit: ; preds = %1, %4
  %.0.i = phi ptr [ %5, %4 ], [ %2, %1 ]
  %6 = getelementptr inbounds nuw i8, ptr %.0.i, i64 328
  %7 = load atomic i32, ptr %6 monotonic, align 4
  %8 = getelementptr inbounds nuw i8, ptr %.0.i, i64 332
  %9 = tail call i32 @llvm.umax.i32(i32 %7, i32 1)
  store atomic i32 %9, ptr %8 monotonic, align 4
  %10 = getelementptr inbounds nuw i8, ptr %.0.i, i64 336
  store atomic i8 0, ptr %10 monotonic, align 1
  %11 = getelementptr inbounds nuw i8, ptr %.0.i, i64 320
  %12 = load ptr, ptr %11, align 8, !tbaa !5
  %.not = icmp eq ptr %12, null
  br i1 %.not, label %15, label %13

13:                                               ; preds = %_ZN4absl24synchronization_internal32GetOrCreateCurrentThreadIdentityEv.exit
  %14 = atomicrmw add ptr %12, i32 1 monotonic, align 4
  br label %15

15:                                               ; preds = %13, %_ZN4absl24synchronization_internal32GetOrCreateCurrentThreadIdentityEv.exit
  %16 = getelementptr inbounds nuw i8, ptr %.0.i, i64 64
  %17 = tail call noundef zeroext i1 @_ZN4absl24synchronization_internal11FutexWaiter4WaitENS0_13KernelTimeoutE(ptr noundef nonnull align 4 dereferenceable(4) %16, i64 %0)
  %18 = load ptr, ptr %11, align 8, !tbaa !5
  %.not14 = icmp eq ptr %18, null
  br i1 %.not14, label %21, label %19

19:                                               ; preds = %15
  %20 = atomicrmw sub ptr %18, i32 1 monotonic, align 4
  br label %21

21:                                               ; preds = %19, %15
  store atomic i8 0, ptr %10 monotonic, align 1
  store atomic i32 0, ptr %8 monotonic, align 4
  ret i1 %17
}